target datalayout = "e-m:e-p270:32:32-p271:32:32-p272:64:64-i64:64-i128:128-f80:128-n8:16:32:64-S128"
target triple = "x86_64-pc-linux-gnu"

%struct.vring_desc = type { i64, i32, i16, i16 }

; Function Attrs: nounwind uwtable
define internal i32 @vduse_queue_read_indirect_desc(ptr noundef %0, ptr noundef %1, i64 noundef %2, i64 noundef %3) #0 {
  %5 = alloca i32, align 4
  %6 = alloca ptr, align 8
  %7 = alloca ptr, align 8
  %8 = alloca i64, align 8
  %9 = alloca i64, align 8
  %10 = alloca ptr, align 8
  %11 = alloca i64, align 8
  %12 = alloca i32, align 4
  store ptr %0, ptr %6, align 8
  store ptr %1, ptr %7, align 8
  store i64 %2, ptr %8, align 8
  store i64 %3, ptr %9, align 8
  call void @llvm.lifetime.start.p0(i64 8, ptr %10) #13
  store ptr null, ptr %10, align 8, !annotation !4
  call void @llvm.lifetime.start.p0(i64 8, ptr %11) #13
  store i64 0, ptr %11, align 8, !annotation !4
  %13 = load i64, ptr %9, align 8
  %14 = icmp ugt i64 %13, 16384
  br i1 %14, label %15, label %16

15:                                               ; preds = %4
  store i32 -1, ptr %5, align 4
  store i32 1, ptr %12, align 4
  br label %46

16:                                               ; preds = %4
  %17 = load i64, ptr %9, align 8
  %18 = icmp eq i64 %17, 0
  br i1 %18, label %19, label %20

19:                                               ; preds = %16
  store i32 -1, ptr %5, align 4
  store i32 1, ptr %12, align 4
  br label %46

20:                                               ; preds = %16
  br label %21

21:                                               ; preds = %32, %20
  %22 = load i64, ptr %9, align 8
  %23 = icmp ne i64 %22, 0
  br i1 %23, label %24, label %45

24:                                               ; preds = %21
  %25 = load i64, ptr %9, align 8
  store i64 %25, ptr %11, align 8
  %26 = load ptr, ptr %6, align 8
  %27 = load i64, ptr %8, align 8
  %28 = call ptr @iova_to_va(ptr noundef %26, ptr noundef %11, i64 noundef %27)
  store ptr %28, ptr %10, align 8
  %29 = load ptr, ptr %10, align 8
  %30 = icmp ne ptr %29, null
  br i1 %30, label %32, label %31

31:                                               ; preds = %24
  store i32 -1, ptr %5, align 4
  store i32 1, ptr %12, align 4
  br label %46

32:                                               ; preds = %24
  %33 = load ptr, ptr %7, align 8
  %34 = load ptr, ptr %10, align 8
  %35 = load i64, ptr %11, align 8
  call void @llvm.memcpy.p0.p0.i64(ptr align 8 %33, ptr align 8 %34, i64 %35, i1 false)
  %36 = load i64, ptr %11, align 8
  %37 = load i64, ptr %9, align 8
  %38 = sub i64 %37, %36
  store i64 %38, ptr %9, align 8
  %39 = load i64, ptr %11, align 8
  %40 = load i64, ptr %8, align 8
  %41 = add i64 %40, %39
  store i64 %41, ptr %8, align 8
  %42 = load i64, ptr %11, align 8
  %43 = load ptr, ptr %7, align 8
  %44 = getelementptr inbounds nuw %struct.vring_desc, ptr %43, i64 %42
  store ptr %44, ptr %7, align 8
  br label %21

45:                                               ; preds = %21
  store i32 0, ptr %5, align 4
  store i32 1, ptr %12, align 4
  br label %46

46:                                               ; preds = %45, %31, %19, %15
  call void @llvm.lifetime.end.p0(i64 8, ptr %11) #13
  call void @llvm.lifetime.end.p0(i64 8, ptr %10) #13
  %47 = load i32, ptr %5, align 4
  ret i32 %47
}