; Function Attrs: nounwind uwtable
define internal fastcc range(i32 -1, 1) i32 @vduse_queue_read_indirect_desc(ptr noundef captures(none) %0, ptr noundef nonnull writeonly captures(none) %1, i64 noundef %2, i64 noundef range(i64 0, 4294967296) %3) unnamed_addr #2 {
  %5 = alloca i64, align 8
  call void @llvm.lifetime.start.p0(i64 8, ptr nonnull %5) #20
  %6 = add nsw i64 %3, -16385
  %or.cond = icmp ult i64 %6, -16384
  br i1 %or.cond, label %.loopexit, label %.lr.ph

.lr.ph:                                           ; preds = %4, %8
  %.021 = phi i64 [ %10, %8 ], [ %3, %4 ]
  %.01220 = phi i64 [ %11, %8 ], [ %2, %4 ]
  %.01319 = phi ptr [ %12, %8 ], [ %1, %4 ]
  store i64 %.021, ptr %5, align 8
  %7 = call fastcc ptr @iova_to_va(ptr noundef %0, ptr noundef %5, i64 noundef %.01220)
  %.not17 = icmp eq ptr %7, null
  br i1 %.not17, label %.loopexit, label %8

8:                                                ; preds = %.lr.ph
  %9 = load i64, ptr %5, align 8
  tail call void @llvm.memcpy.p0.p0.i64(ptr align 8 %.01319, ptr nonnull align 8 %7, i64 %9, i1 false)
  %10 = sub i64 %.021, %9
  %11 = add i64 %9, %.01220
  %12 = getelementptr inbounds nuw %struct.vring_desc, ptr %.01319, i64 %9
  %.not = icmp eq i64 %10, 0
  br i1 %.not, label %.loopexit, label %.lr.ph

.loopexit:                                        ; preds = %.lr.ph, %8, %4
  %.014 = phi i32 [ -1, %4 ], [ -1, %.lr.ph ], [ 0, %8 ]
  call void @llvm.lifetime.end.p0(i64 8, ptr nonnull %5) #20
  ret i32 %.014
}